; Function Attrs: nounwind uwtable
define dso_local void @luaL_checkstack(ptr noundef %0, i32 noundef %1, ptr noundef %2) local_unnamed_addr #0 {
  %4 = tail call i32 @lua_checkstack(ptr noundef %0, i32 noundef %1) #17
  %.not = icmp eq i32 %4, 0
  br i1 %.not, label %5, label %7

5:                                                ; preds = %3
  %6 = tail call i32 (ptr, ptr, ...) @luaL_error(ptr noundef %0, ptr noundef nonnull @.str.11, ptr noundef %2)
  br label %7

7:                                                ; preds = %5, %3
  ret void
}